target datalayout = "e-m:e-p270:32:32-p271:32:32-p272:64:64-i64:64-i128:128-f80:128-n8:16:32:64-S128"
target triple = "x86_64-pc-linux-gnu"

%struct.MovTextContext = type { ptr, ptr, %struct.HighlightBox, %struct.HilightcolorBox, ptr, %struct.TextWrapBox, %struct.MovTextDefault, i8, i16, i16, i32, i32, i32 }
%struct.HighlightBox = type { i16, i16 }
%struct.HilightcolorBox = type { [4 x i8] }
%struct.TextWrapBox = type { i8 }
%struct.MovTextDefault = type { %struct.StyleBox, ptr, i32, i8, i32 }
%struct.StyleBox = type { i16, i16, i8, i8, i8, i8, i32, i8, i8, i16 }

; Function Attrs: alwaysinline nounwind uwtable
define internal i32 @bytestream_get_byte(ptr noundef %0) #4 {
  %2 = alloca ptr, align 8
  store ptr %0, ptr %2, align 8, !tbaa !85
  %3 = load ptr, ptr %2, align 8, !tbaa !85
  %4 = load ptr, ptr %3, align 8, !tbaa !56
  %5 = getelementptr inbounds i8, ptr %4, i64 1
  store ptr %5, ptr %3, align 8, !tbaa !56
  %6 = load ptr, ptr %2, align 8, !tbaa !85
  %7 = load ptr, ptr %6, align 8, !tbaa !56
  %8 = getelementptr inbounds i8, ptr %7, i64 -1
  %9 = getelementptr inbounds i8, ptr %8, i64 0
  %10 = load i8, ptr %9, align 1, !tbaa !58
  %11 = zext i8 %10 to i32
  ret i32 %11
}

; Function Attrs: nounwind uwtable
define internal i32 @decode_twrp(ptr noundef %0, ptr noundef %1, i64 noundef %2) #1 {
  %4 = alloca ptr, align 8
  %5 = alloca ptr, align 8
  %6 = alloca i64, align 8
  store ptr %0, ptr %4, align 8, !tbaa !56
  store ptr %1, ptr %5, align 8, !tbaa !29
  store i64 %2, ptr %6, align 8, !tbaa !61
  %7 = load ptr, ptr %5, align 8, !tbaa !29
  %8 = getelementptr inbounds nuw %struct.MovTextContext, ptr %7, i32 0, i32 7
  %9 = load i8, ptr %8, align 8, !tbaa !60
  %10 = zext i8 %9 to i32
  %11 = or i32 %10, 8
  %12 = trunc i32 %11 to i8
  store i8 %12, ptr %8, align 8, !tbaa !60
  %13 = call i32 @bytestream_get_byte(ptr noundef %4)
  %14 = trunc i32 %13 to i8
  %15 = load ptr, ptr %5, align 8, !tbaa !29
  %16 = getelementptr inbounds nuw %struct.MovTextContext, ptr %15, i32 0, i32 5
  %17 = getelementptr inbounds nuw %struct.TextWrapBox, ptr %16, i32 0, i32 0
  store i8 %14, ptr %17, align 8, !tbaa !93
  ret i32 0
}