; Function Attrs: mustprogress nofree norecurse nosync nounwind willreturn memory(argmem: readwrite) uwtable
define internal noundef i32 @decode_twrp(ptr noundef readonly captures(none) %0, ptr noundef captures(none) initializes((32, 33)) %1, i64 %2) #6 {
  %4 = getelementptr inbounds nuw i8, ptr %1, i64 80
  %5 = load i8, ptr %4, align 8, !tbaa !62
  %6 = or i8 %5, 8
  store i8 %6, ptr %4, align 8, !tbaa !62
  %7 = load i8, ptr %0, align 1, !tbaa !36
  %8 = getelementptr inbounds nuw i8, ptr %1, i64 32
  store i8 %7, ptr %8, align 8, !tbaa !77
  ret i32 0
}